target datalayout = "e-m:e-p270:32:32-p271:32:32-p272:64:64-i64:64-i128:128-f80:128-n8:16:32:64-S128"
target triple = "x86_64-pc-linux-gnu"

@_ZN3tbb6detail2r115system_topology12_GLOBAL__N_116numa_nodes_countE = internal global i32 0, align 4
@_ZN3tbb6detail2r115system_topology12_GLOBAL__N_118numa_nodes_indexesE = internal global ptr null, align 8

; Function Attrs: alwaysinline mustprogress nounwind
define internal ptr @memcpy.inline(ptr noalias nonnull %0, ptr noalias nonnull %1, i64 %2) #7 {
  %4 = alloca ptr, align 8
  %5 = alloca ptr, align 8
  %6 = alloca i64, align 8
  store ptr %0, ptr %4, align 8, !tbaa !12
  store ptr %1, ptr %5, align 8, !tbaa !12
  store i64 %2, ptr %6, align 8, !tbaa !94
  %7 = load ptr, ptr %4, align 8, !tbaa !12
  %8 = load ptr, ptr %5, align 8, !tbaa !12
  %9 = load i64, ptr %6, align 8, !tbaa !94
  %10 = load ptr, ptr %4, align 8, !tbaa !12
  %11 = call i64 @llvm.objectsize.i64.p0(ptr %10, i1 false, i1 true, i1 false)
  %12 = call ptr @__memcpy_chk(ptr noundef %7, ptr noundef %8, i64 noundef %9, i64 noundef %11) #12
  ret ptr %12
}

; Function Attrs: mustprogress sspstrong uwtable
define void @_ZN3tbb6detail2r117fill_numa_indicesEPi(ptr noundef %0) #1 {
  %2 = alloca ptr, align 8
  store ptr %0, ptr %2, align 8, !tbaa !155
  call void @_ZN3tbb6detail2r115system_topology10initializeEv()
  %3 = load ptr, ptr %2, align 8, !tbaa !155
  %4 = load ptr, ptr @_ZN3tbb6detail2r115system_topology12_GLOBAL__N_118numa_nodes_indexesE, align 8, !tbaa !155
  %5 = load i32, ptr @_ZN3tbb6detail2r115system_topology12_GLOBAL__N_116numa_nodes_countE, align 4, !tbaa !3
  %6 = sext i32 %5 to i64
  %7 = mul i64 %6, 4
  %8 = call ptr @memcpy.inline(ptr noundef %3, ptr noundef %4, i64 noundef %7) #12
  ret void
}