; Function Attrs: mustprogress sspstrong uwtable
define void @_ZN3tbb6detail2r117fill_numa_indicesEPi(ptr noundef %0) local_unnamed_addr #1 {
  tail call void @_ZN3tbb6detail2r115system_topology10initializeEv()
  %2 = load ptr, ptr @_ZN3tbb6detail2r115system_topology12_GLOBAL__N_118numa_nodes_indexesE, align 8, !tbaa !136
  %3 = load i32, ptr @_ZN3tbb6detail2r115system_topology12_GLOBAL__N_116numa_nodes_countE, align 4, !tbaa !102
  %4 = sext i32 %3 to i64
  %5 = shl nsw i64 %4, 2
  tail call void @llvm.memcpy.p0.p0.i64(ptr noundef nonnull align 1 %0, ptr noundef nonnull align 1 %2, i64 noundef range(i64 -8589934592, 8589934589) %5, i1 noundef false) #8
  ret void
}